; Function Attrs: mustprogress uwtable
define void @_ZN5faiss9IndexHNSW5resetEv(ptr noundef nonnull align 8 dereferenceable(5202) %0) unnamed_addr #1 align 2 {
  %2 = getelementptr inbounds nuw i8, ptr %0, i64 40
  tail call void @_ZN5faiss4HNSW5resetEv(ptr noundef nonnull align 8 dereferenceable(5142) %2)
  %3 = getelementptr inbounds nuw i8, ptr %0, i64 5192
  %4 = load ptr, ptr %3, align 8, !tbaa !4
  %5 = load ptr, ptr %4, align 8, !tbaa !41
  %6 = getelementptr inbounds nuw i8, ptr %5, i64 64
  %7 = load ptr, ptr %6, align 8
  tail call void %7(ptr noundef nonnull align 8 dereferenceable(36) %4)
  %8 = getelementptr inbounds nuw i8, ptr %0, i64 16
  store i64 0, ptr %8, align 8, !tbaa !46
  ret void
}